; Function Attrs: mustprogress nofree norecurse nounwind willreturn memory(read, inaccessiblemem: none) uwtable
define internal range(i32 0, 101) i32 @ogg_probe(ptr noundef readonly captures(none) %0) #0 {
  %2 = getelementptr inbounds nuw i8, ptr %0, i64 8
  %3 = load ptr, ptr %2, align 8, !tbaa !4
  %bcmp = tail call i32 @bcmp(ptr noundef nonnull dereferenceable(5) @.str.2, ptr noundef nonnull dereferenceable(5) %3, i64 5)
  %.not = icmp eq i32 %bcmp, 0
  br i1 %.not, label %4, label %8

4:                                                ; preds = %1
  %5 = getelementptr inbounds nuw i8, ptr %3, i64 5
  %6 = load i8, ptr %5, align 1, !tbaa !11
  %7 = icmp ult i8 %6, 8
  br i1 %7, label %9, label %8

8:                                                ; preds = %4, %1
  br label %9

9:                                                ; preds = %4, %8
  %.0 = phi i32 [ 0, %8 ], [ 100, %4 ]
  ret i32 %.0
}